target datalayout = "e-m:e-p270:32:32-p271:32:32-p272:64:64-i64:64-i128:128-f80:128-n8:16:32:64-S128"
target triple = "x86_64-pc-linux-gnu"

%struct.jit_State = type { %struct.GCtrace, ptr, ptr, ptr, ptr, ptr, ptr, i32, i32, i32, i8, i8, %struct.IRType1, i8, %struct.FoldState, ptr, i32, i32, i32, i32, i32, i32, i32, [1 x i32], [5 x %union.TValue], [3 x %union.TValue], ptr, i32, i32, i32, i32, ptr, ptr, i32, i32, i8, ptr, i32, i32, i16, [101 x i16], [258 x i32], [15 x i32], [16 x ptr], [64 x %struct.HotPenalty], i32, [16 x %struct.BPropEntry], i32, %struct.ScEvEntry, ptr, i32, i32, i32, ptr, i32, i32, ptr, ptr, ptr, i64, i64, %union.TValue, ptr, i32, i32 }
%struct.GCtrace = type { %struct.GCRef, i8, i8, i16, i32, i32, %struct.GCRef, ptr, i32, i32, ptr, ptr, %struct.GCRef, %struct.MRef, i32, i32, ptr, i32, i16, i16, i16, i16, i16, i16, i16, i8, i8, i8, i8 }
%struct.GCRef = type { i64 }
%struct.MRef = type { i64 }
%struct.IRType1 = type { i8 }
%struct.FoldState = type { %union.IRIns, [2 x %union.IRIns], [2 x %union.IRIns] }
%union.IRIns = type { %struct.GCRef }
%struct.HotPenalty = type { %struct.MRef, i16, i16 }
%struct.BPropEntry = type { i16, i16, i32 }
%struct.ScEvEntry = type { %struct.MRef, i16, i16, i16, i16, %struct.IRType1, i8 }
%union.TValue = type { i64 }
%struct.lua_State = type { %struct.GCRef, i8, i8, i8, i8, %struct.MRef, %struct.GCRef, ptr, ptr, %struct.MRef, %struct.MRef, %struct.GCRef, %struct.GCRef, ptr, i32 }
%struct.RecCatDataCP = type { ptr, i32, i32, i32 }

@.str = private unnamed_addr constant [23 x i8] c"copy of dead GC object\00", align 1

; Function Attrs: alwaysinline nounwind uwtable
define internal void @checklivetv(ptr noundef %0, ptr noundef %1, ptr noundef %2) #3 {
  %4 = alloca ptr, align 8
  %5 = alloca ptr, align 8
  %6 = alloca ptr, align 8
  store ptr %0, ptr %4, align 8, !tbaa !82
  store ptr %1, ptr %5, align 8, !tbaa !11
  store ptr %2, ptr %6, align 8, !tbaa !183
  ret void
}

; Function Attrs: alwaysinline nounwind uwtable
define internal void @copyTV(ptr noundef %0, ptr noundef %1, ptr noundef %2) #3 {
  %4 = alloca ptr, align 8
  %5 = alloca ptr, align 8
  %6 = alloca ptr, align 8
  store ptr %0, ptr %4, align 8, !tbaa !82
  store ptr %1, ptr %5, align 8, !tbaa !11
  store ptr %2, ptr %6, align 8, !tbaa !11
  %7 = load ptr, ptr %5, align 8, !tbaa !11
  %8 = load ptr, ptr %6, align 8, !tbaa !11
  call void @llvm.memcpy.p0.p0.i64(ptr align 8 %7, ptr align 8 %8, i64 8, i1 false), !tbaa.struct !83
  %9 = load ptr, ptr %4, align 8, !tbaa !82
  %10 = load ptr, ptr %5, align 8, !tbaa !11
  call void @checklivetv(ptr noundef %9, ptr noundef %10, ptr noundef @.str)
  ret void
}

; Function Attrs: nounwind uwtable
define internal i32 @rec_cat(ptr noundef %0, i32 noundef %1, i32 noundef %2) #0 {
  %4 = alloca i32, align 4
  %5 = alloca ptr, align 8
  %6 = alloca i32, align 4
  %7 = alloca i32, align 4
  %8 = alloca ptr, align 8
  %9 = alloca i64, align 8
  %10 = alloca [6 x %union.TValue], align 16
  %11 = alloca %union.TValue, align 8
  %12 = alloca %struct.RecCatDataCP, align 8
  %13 = alloca i32, align 4
  %14 = alloca i32, align 4
  store ptr %0, ptr %5, align 8, !tbaa !4
  store i32 %1, ptr %6, align 4, !tbaa !9
  store i32 %2, ptr %7, align 4, !tbaa !9
  call void @llvm.lifetime.start.p0(i64 8, ptr %8) #9
  %15 = load ptr, ptr %5, align 8, !tbaa !4
  %16 = getelementptr inbounds nuw %struct.jit_State, ptr %15, i32 0, i32 2
  %17 = load ptr, ptr %16, align 8, !tbaa !51
  store ptr %17, ptr %8, align 8, !tbaa !82
  call void @llvm.lifetime.start.p0(i64 8, ptr %9) #9
  %18 = load ptr, ptr %8, align 8, !tbaa !82
  %19 = getelementptr inbounds nuw %struct.lua_State, ptr %18, i32 0, i32 8
  %20 = load ptr, ptr %19, align 8, !tbaa !84
  %21 = load ptr, ptr %8, align 8, !tbaa !82
  %22 = getelementptr inbounds nuw %struct.lua_State, ptr %21, i32 0, i32 7
  %23 = load ptr, ptr %22, align 8, !tbaa !52
  %24 = ptrtoint ptr %20 to i64
  %25 = ptrtoint ptr %23 to i64
  %26 = sub i64 %24, %25
  %27 = sdiv exact i64 %26, 8
  store i64 %27, ptr %9, align 8, !tbaa !49
  call void @llvm.lifetime.start.p0(i64 48, ptr %10) #9
  call void @llvm.lifetime.start.p0(i64 8, ptr %11) #9
  call void @llvm.lifetime.start.p0(i64 24, ptr %12) #9
  call void @llvm.lifetime.start.p0(i64 4, ptr %13) #9
  %28 = load ptr, ptr %5, align 8, !tbaa !4
  %29 = getelementptr inbounds nuw %struct.RecCatDataCP, ptr %12, i32 0, i32 0
  store ptr %28, ptr %29, align 8, !tbaa !85
  %30 = load i32, ptr %6, align 4, !tbaa !9
  %31 = getelementptr inbounds nuw %struct.RecCatDataCP, ptr %12, i32 0, i32 1
  store i32 %30, ptr %31, align 8, !tbaa !87
  %32 = load i32, ptr %7, align 4, !tbaa !9
  %33 = getelementptr inbounds nuw %struct.RecCatDataCP, ptr %12, i32 0, i32 2
  store i32 %32, ptr %33, align 4, !tbaa !88
  %34 = getelementptr inbounds [6 x %union.TValue], ptr %10, i64 0, i64 0
  %35 = load ptr, ptr %8, align 8, !tbaa !82
  %36 = getelementptr inbounds nuw %struct.lua_State, ptr %35, i32 0, i32 7
  %37 = load ptr, ptr %36, align 8, !tbaa !52
  %38 = load i32, ptr %7, align 4, !tbaa !9
  %39 = sub i32 %38, 1
  %40 = zext i32 %39 to i64
  %41 = getelementptr inbounds nuw %union.TValue, ptr %37, i64 %40
  call void @llvm.memcpy.p0.p0.i64(ptr align 16 %34, ptr align 8 %41, i64 48, i1 false)
  %42 = load ptr, ptr %8, align 8, !tbaa !82
  %43 = call i32 @lj_vm_cpcall(ptr noundef %42, ptr noundef null, ptr noundef %12, ptr noundef @rec_mm_concat_cp)
  store i32 %43, ptr %13, align 4, !tbaa !9
  %44 = load i32, ptr %13, align 4, !tbaa !9
  %45 = icmp ne i32 %44, 0
  br i1 %45, label %46, label %52

46:                                               ; preds = %3
  %47 = load ptr, ptr %8, align 8, !tbaa !82
  %48 = load ptr, ptr %8, align 8, !tbaa !82
  %49 = getelementptr inbounds nuw %struct.lua_State, ptr %48, i32 0, i32 8
  %50 = load ptr, ptr %49, align 8, !tbaa !84
  %51 = getelementptr inbounds %union.TValue, ptr %50, i64 -1
  call void @copyTV(ptr noundef %47, ptr noundef %11, ptr noundef %51)
  br label %52

52:                                               ; preds = %46, %3
  %53 = load ptr, ptr %8, align 8, !tbaa !82
  %54 = getelementptr inbounds nuw %struct.lua_State, ptr %53, i32 0, i32 7
  %55 = load ptr, ptr %54, align 8, !tbaa !52
  %56 = load i32, ptr %7, align 4, !tbaa !9
  %57 = sub i32 %56, 1
  %58 = zext i32 %57 to i64
  %59 = getelementptr inbounds nuw %union.TValue, ptr %55, i64 %58
  %60 = getelementptr inbounds [6 x %union.TValue], ptr %10, i64 0, i64 0
  call void @llvm.memcpy.p0.p0.i64(ptr align 8 %59, ptr align 16 %60, i64 48, i1 false)
  %61 = load i32, ptr %13, align 4, !tbaa !9
  %62 = icmp ne i32 %61, 0
  br i1 %62, label %63, label %78

63:                                               ; preds = %52
  %64 = load ptr, ptr %8, align 8, !tbaa !82
  %65 = getelementptr inbounds nuw %struct.lua_State, ptr %64, i32 0, i32 7
  %66 = load ptr, ptr %65, align 8, !tbaa !52
  %67 = load i64, ptr %9, align 8, !tbaa !49
  %68 = getelementptr inbounds %union.TValue, ptr %66, i64 %67
  %69 = load ptr, ptr %8, align 8, !tbaa !82
  %70 = getelementptr inbounds nuw %struct.lua_State, ptr %69, i32 0, i32 8
  store ptr %68, ptr %70, align 8, !tbaa !84
  %71 = load ptr, ptr %8, align 8, !tbaa !82
  %72 = load ptr, ptr %8, align 8, !tbaa !82
  %73 = getelementptr inbounds nuw %struct.lua_State, ptr %72, i32 0, i32 8
  %74 = load ptr, ptr %73, align 8, !tbaa !84
  %75 = getelementptr inbounds nuw %union.TValue, ptr %74, i32 1
  store ptr %75, ptr %73, align 8, !tbaa !84
  call void @copyTV(ptr noundef %71, ptr noundef %74, ptr noundef %11)
  %76 = load i32, ptr %13, align 4, !tbaa !9
  %77 = sub nsw i32 0, %76
  store i32 %77, ptr %4, align 4
  store i32 1, ptr %14, align 4
  br label %81

78:                                               ; preds = %52
  %79 = getelementptr inbounds nuw %struct.RecCatDataCP, ptr %12, i32 0, i32 3
  %80 = load i32, ptr %79, align 8, !tbaa !89
  store i32 %80, ptr %4, align 4
  store i32 1, ptr %14, align 4
  br label %81

81:                                               ; preds = %78, %63
  call void @llvm.lifetime.end.p0(i64 4, ptr %13) #9
  call void @llvm.lifetime.end.p0(i64 24, ptr %12) #9
  call void @llvm.lifetime.end.p0(i64 8, ptr %11) #9
  call void @llvm.lifetime.end.p0(i64 48, ptr %10) #9
  call void @llvm.lifetime.end.p0(i64 8, ptr %9) #9
  call void @llvm.lifetime.end.p0(i64 8, ptr %8) #9
  %82 = load i32, ptr %4, align 4
  ret i32 %82
}