; Function Attrs: nounwind uwtable
define internal fastcc i32 @rec_cat(ptr noundef %0, i32 noundef %1, i32 noundef %2) unnamed_addr #0 {
  %4 = alloca [6 x %union.TValue], align 16
  %5 = alloca %struct.RecCatDataCP, align 8
  %6 = getelementptr inbounds nuw i8, ptr %0, i64 128
  %7 = load ptr, ptr %6, align 8, !tbaa !44
  %8 = getelementptr inbounds nuw i8, ptr %7, i64 40
  %9 = load ptr, ptr %8, align 8, !tbaa !69
  %10 = getelementptr inbounds nuw i8, ptr %7, i64 32
  %11 = load ptr, ptr %10, align 8, !tbaa !45
  call void @llvm.lifetime.start.p0(i64 48, ptr nonnull %4)
  call void @llvm.lifetime.start.p0(i64 24, ptr nonnull %5) #8
  store ptr %0, ptr %5, align 8, !tbaa !70
  %12 = getelementptr inbounds nuw i8, ptr %5, i64 8
  store i32 %1, ptr %12, align 8, !tbaa !73
  %13 = getelementptr inbounds nuw i8, ptr %5, i64 12
  store i32 %2, ptr %13, align 4, !tbaa !74
  %14 = add i32 %2, -1
  %15 = zext i32 %14 to i64
  %16 = getelementptr inbounds nuw %union.TValue, ptr %11, i64 %15
  call void @llvm.memcpy.p0.p0.i64(ptr noundef nonnull align 16 dereferenceable(48) %4, ptr noundef nonnull align 8 dereferenceable(48) %16, i64 48, i1 false)
  %17 = call i32 @lj_vm_cpcall(ptr noundef %7, ptr noundef null, ptr noundef nonnull %5, ptr noundef nonnull @rec_mm_concat_cp) #8
  %.not = icmp eq i32 %17, 0
  br i1 %.not, label %.critedge, label %18

18:                                               ; preds = %3
  %19 = ptrtoint ptr %9 to i64
  %20 = ptrtoint ptr %11 to i64
  %21 = sub i64 %19, %20
  %22 = load ptr, ptr %8, align 8, !tbaa !69
  %23 = getelementptr inbounds i8, ptr %22, i64 -8
  %24 = load i64, ptr %23, align 8, !tbaa !4
  %25 = load ptr, ptr %10, align 8, !tbaa !45
  %26 = getelementptr inbounds nuw %union.TValue, ptr %25, i64 %15
  call void @llvm.memcpy.p0.p0.i64(ptr noundef nonnull align 8 dereferenceable(48) %26, ptr noundef nonnull align 16 dereferenceable(48) %4, i64 48, i1 false)
  %27 = load ptr, ptr %10, align 8, !tbaa !45
  %28 = getelementptr inbounds i8, ptr %27, i64 %21
  %29 = getelementptr inbounds nuw i8, ptr %28, i64 8
  store ptr %29, ptr %8, align 8, !tbaa !69
  store i64 %24, ptr %28, align 8, !tbaa !4
  %30 = sub nsw i32 0, %17
  br label %35

.critedge:                                        ; preds = %3
  %31 = load ptr, ptr %10, align 8, !tbaa !45
  %32 = getelementptr inbounds nuw %union.TValue, ptr %31, i64 %15
  call void @llvm.memcpy.p0.p0.i64(ptr noundef nonnull align 8 dereferenceable(48) %32, ptr noundef nonnull align 16 dereferenceable(48) %4, i64 48, i1 false)
  %33 = getelementptr inbounds nuw i8, ptr %5, i64 16
  %34 = load i32, ptr %33, align 8, !tbaa !75
  br label %35

35:                                               ; preds = %.critedge, %18
  %.0 = phi i32 [ %30, %18 ], [ %34, %.critedge ]
  call void @llvm.lifetime.end.p0(i64 24, ptr nonnull %5) #8
  call void @llvm.lifetime.end.p0(i64 48, ptr nonnull %4)
  ret i32 %.0
}